target datalayout = "e-m:e-p270:32:32-p271:32:32-p272:64:64-i64:64-i128:128-f80:128-n8:16:32:64-S128"
target triple = "x86_64-pc-linux-gnu"

%struct.git_hash_algo = type { ptr, i32, i64, i64, i64, ptr, ptr, ptr, ptr, ptr, ptr, ptr, ptr, ptr }
%struct.cache_tree = type { i32, %struct.object_id, i32, i32, ptr }
%struct.object_id = type { [32 x i8], i32 }
%struct.cache_tree_sub = type { ptr, i32, i32, i32, [0 x i8] }
%struct.hashmap = type { ptr, ptr, ptr, i32, i32, i32, i32, i8 }
%struct.repository = type { ptr, ptr, ptr, ptr, ptr, %struct.strmap, %struct.strmap, %struct.repo_path_cache, ptr, ptr, ptr, ptr, %struct.repo_settings, ptr, ptr, ptr, ptr, ptr, ptr, i32, i32, i32, ptr, ptr, i32, i32, i8 }
%struct.strmap = type { %struct.hashmap, ptr, i8 }
%struct.repo_path_cache = type { ptr, ptr, ptr, ptr, ptr, ptr, ptr }
%struct.repo_settings = type { i32, i32, i32, i32, i32, i32, i32, i32, i32, i32, i32, i32, ptr, i32, i32, i32, i32, i32, i32, i32, i64, i64, i64 }

@the_repository = external global ptr, align 8
@.str.22 = private unnamed_addr constant [9 x i8] c"%c%d %d\0A\00", align 1
@.str.23 = private unnamed_addr constant [31 x i8] c"fatal - unsorted cache subtree\00", align 1

; Function Attrs: nounwind uwtable
define internal i32 @subtree_name_cmp(ptr noundef %0, i32 noundef %1, ptr noundef %2, i32 noundef %3) #0 {
  %5 = alloca i32, align 4
  %6 = alloca ptr, align 8
  %7 = alloca i32, align 4
  %8 = alloca ptr, align 8
  %9 = alloca i32, align 4
  store ptr %0, ptr %6, align 8, !tbaa !23
  store i32 %1, ptr %7, align 4, !tbaa !16
  store ptr %2, ptr %8, align 8, !tbaa !23
  store i32 %3, ptr %9, align 4, !tbaa !16
  %10 = load i32, ptr %7, align 4, !tbaa !16
  %11 = load i32, ptr %9, align 4, !tbaa !16
  %12 = icmp slt i32 %10, %11
  br i1 %12, label %13, label %14

13:                                               ; preds = %4
  store i32 -1, ptr %5, align 4
  br label %25

14:                                               ; preds = %4
  %15 = load i32, ptr %9, align 4, !tbaa !16
  %16 = load i32, ptr %7, align 4, !tbaa !16
  %17 = icmp slt i32 %15, %16
  br i1 %17, label %18, label %19

18:                                               ; preds = %14
  store i32 1, ptr %5, align 4
  br label %25

19:                                               ; preds = %14
  %20 = load ptr, ptr %6, align 8, !tbaa !23
  %21 = load ptr, ptr %8, align 8, !tbaa !23
  %22 = load i32, ptr %7, align 4, !tbaa !16
  %23 = sext i32 %22 to i64
  %24 = call i32 @memcmp(ptr noundef %20, ptr noundef %21, i64 noundef %23) #11
  store i32 %24, ptr %5, align 4
  br label %25

25:                                               ; preds = %19, %18, %13
  %26 = load i32, ptr %5, align 4
  ret i32 %26
}

; Function Attrs: nounwind uwtable
define internal void @write_one(ptr noundef %0, ptr noundef %1, ptr noundef %2, i32 noundef %3) #0 {
  %5 = alloca ptr, align 8
  %6 = alloca ptr, align 8
  %7 = alloca ptr, align 8
  %8 = alloca i32, align 4
  %9 = alloca i32, align 4
  %10 = alloca ptr, align 8
  %11 = alloca ptr, align 8
  store ptr %0, ptr %5, align 8, !tbaa !89
  store ptr %1, ptr %6, align 8, !tbaa !4
  store ptr %2, ptr %7, align 8, !tbaa !23
  store i32 %3, ptr %8, align 4, !tbaa !16
  call void @llvm.lifetime.start.p0(i64 4, ptr %9) #10
  %12 = load ptr, ptr %5, align 8, !tbaa !89
  %13 = load i32, ptr %8, align 4, !tbaa !16
  %14 = add nsw i32 %13, 100
  %15 = sext i32 %14 to i64
  call void @strbuf_grow(ptr noundef %12, i64 noundef %15)
  %16 = load ptr, ptr %5, align 8, !tbaa !89
  %17 = load ptr, ptr %7, align 8, !tbaa !23
  %18 = load i32, ptr %8, align 4, !tbaa !16
  %19 = sext i32 %18 to i64
  call void @strbuf_add(ptr noundef %16, ptr noundef %17, i64 noundef %19)
  %20 = load ptr, ptr %5, align 8, !tbaa !89
  %21 = load ptr, ptr %6, align 8, !tbaa !4
  %22 = getelementptr inbounds nuw %struct.cache_tree, ptr %21, i32 0, i32 0
  %23 = load i32, ptr %22, align 8, !tbaa !9
  %24 = load ptr, ptr %6, align 8, !tbaa !4
  %25 = getelementptr inbounds nuw %struct.cache_tree, ptr %24, i32 0, i32 2
  %26 = load i32, ptr %25, align 8, !tbaa !17
  call void (ptr, ptr, ...) @strbuf_addf(ptr noundef %20, ptr noundef @.str.22, i32 noundef 0, i32 noundef %23, i32 noundef %26)
  %27 = load ptr, ptr %6, align 8, !tbaa !4
  %28 = getelementptr inbounds nuw %struct.cache_tree, ptr %27, i32 0, i32 0
  %29 = load i32, ptr %28, align 8, !tbaa !9
  %30 = icmp sle i32 0, %29
  br i1 %30, label %31, label %42

31:                                               ; preds = %4
  %32 = load ptr, ptr %5, align 8, !tbaa !89
  %33 = load ptr, ptr %6, align 8, !tbaa !4
  %34 = getelementptr inbounds nuw %struct.cache_tree, ptr %33, i32 0, i32 1
  %35 = getelementptr inbounds nuw %struct.object_id, ptr %34, i32 0, i32 0
  %36 = getelementptr inbounds [32 x i8], ptr %35, i64 0, i64 0
  %37 = load ptr, ptr @the_repository, align 8, !tbaa !48
  %38 = getelementptr inbounds nuw %struct.repository, ptr %37, i32 0, i32 17
  %39 = load ptr, ptr %38, align 8, !tbaa !66
  %40 = getelementptr inbounds nuw %struct.git_hash_algo, ptr %39, i32 0, i32 2
  %41 = load i64, ptr %40, align 8, !tbaa !80
  call void @strbuf_add(ptr noundef %32, ptr noundef %36, i64 noundef %41)
  br label %42

42:                                               ; preds = %31, %4
  store i32 0, ptr %9, align 4, !tbaa !16
  br label %43

43:                                               ; preds = %95, %42
  %44 = load i32, ptr %9, align 4, !tbaa !16
  %45 = load ptr, ptr %6, align 8, !tbaa !4
  %46 = getelementptr inbounds nuw %struct.cache_tree, ptr %45, i32 0, i32 2
  %47 = load i32, ptr %46, align 8, !tbaa !17
  %48 = icmp slt i32 %44, %47
  br i1 %48, label %49, label %98

49:                                               ; preds = %43
  call void @llvm.lifetime.start.p0(i64 8, ptr %10) #10
  %50 = load ptr, ptr %6, align 8, !tbaa !4
  %51 = getelementptr inbounds nuw %struct.cache_tree, ptr %50, i32 0, i32 4
  %52 = load ptr, ptr %51, align 8, !tbaa !18
  %53 = load i32, ptr %9, align 4, !tbaa !16
  %54 = sext i32 %53 to i64
  %55 = getelementptr inbounds ptr, ptr %52, i64 %54
  %56 = load ptr, ptr %55, align 8, !tbaa !19
  store ptr %56, ptr %10, align 8, !tbaa !19
  %57 = load i32, ptr %9, align 4, !tbaa !16
  %58 = icmp ne i32 %57, 0
  br i1 %58, label %59, label %84

59:                                               ; preds = %49
  call void @llvm.lifetime.start.p0(i64 8, ptr %11) #10
  %60 = load ptr, ptr %6, align 8, !tbaa !4
  %61 = getelementptr inbounds nuw %struct.cache_tree, ptr %60, i32 0, i32 4
  %62 = load ptr, ptr %61, align 8, !tbaa !18
  %63 = load i32, ptr %9, align 4, !tbaa !16
  %64 = sub nsw i32 %63, 1
  %65 = sext i32 %64 to i64
  %66 = getelementptr inbounds ptr, ptr %62, i64 %65
  %67 = load ptr, ptr %66, align 8, !tbaa !19
  store ptr %67, ptr %11, align 8, !tbaa !19
  %68 = load ptr, ptr %10, align 8, !tbaa !19
  %69 = getelementptr inbounds nuw %struct.cache_tree_sub, ptr %68, i32 0, i32 4
  %70 = getelementptr inbounds [0 x i8], ptr %69, i64 0, i64 0
  %71 = load ptr, ptr %10, align 8, !tbaa !19
  %72 = getelementptr inbounds nuw %struct.cache_tree_sub, ptr %71, i32 0, i32 2
  %73 = load i32, ptr %72, align 4, !tbaa !16
  %74 = load ptr, ptr %11, align 8, !tbaa !19
  %75 = getelementptr inbounds nuw %struct.cache_tree_sub, ptr %74, i32 0, i32 4
  %76 = getelementptr inbounds [0 x i8], ptr %75, i64 0, i64 0
  %77 = load ptr, ptr %11, align 8, !tbaa !19
  %78 = getelementptr inbounds nuw %struct.cache_tree_sub, ptr %77, i32 0, i32 2
  %79 = load i32, ptr %78, align 4, !tbaa !16
  %80 = call i32 @subtree_name_cmp(ptr noundef %70, i32 noundef %73, ptr noundef %76, i32 noundef %79)
  %81 = icmp sle i32 %80, 0
  br i1 %81, label %82, label %83

82:                                               ; preds = %59
  call void (ptr, ...) @die(ptr noundef @.str.23) #12
  unreachable

83:                                               ; preds = %59
  call void @llvm.lifetime.end.p0(i64 8, ptr %11) #10
  br label %84

84:                                               ; preds = %83, %49
  %85 = load ptr, ptr %5, align 8, !tbaa !89
  %86 = load ptr, ptr %10, align 8, !tbaa !19
  %87 = getelementptr inbounds nuw %struct.cache_tree_sub, ptr %86, i32 0, i32 0
  %88 = load ptr, ptr %87, align 8, !tbaa !4
  %89 = load ptr, ptr %10, align 8, !tbaa !19
  %90 = getelementptr inbounds nuw %struct.cache_tree_sub, ptr %89, i32 0, i32 4
  %91 = getelementptr inbounds [0 x i8], ptr %90, i64 0, i64 0
  %92 = load ptr, ptr %10, align 8, !tbaa !19
  %93 = getelementptr inbounds nuw %struct.cache_tree_sub, ptr %92, i32 0, i32 2
  %94 = load i32, ptr %93, align 4, !tbaa !16
  call void @write_one(ptr noundef %85, ptr noundef %88, ptr noundef %91, i32 noundef %94)
  call void @llvm.lifetime.end.p0(i64 8, ptr %10) #10
  br label %95

95:                                               ; preds = %84
  %96 = load i32, ptr %9, align 4, !tbaa !16
  %97 = add nsw i32 %96, 1
  store i32 %97, ptr %9, align 4, !tbaa !16
  br label %43, !llvm.loop !91

98:                                               ; preds = %43
  call void @llvm.lifetime.end.p0(i64 4, ptr %9) #10
  ret void
}