; Function Attrs: nounwind uwtable
define internal fastcc void @write_one(ptr noundef %0, ptr noundef %1, ptr noundef %2, i32 noundef %3) unnamed_addr #0 {
  %5 = add nsw i32 %3, 100
  %6 = sext i32 %5 to i64
  tail call void @strbuf_grow(ptr noundef %0, i64 noundef %6) #18
  %7 = sext i32 %3 to i64
  tail call void @strbuf_add(ptr noundef %0, ptr noundef %2, i64 noundef %7) #18
  %8 = load i32, ptr %1, align 8, !tbaa !4
  %9 = getelementptr inbounds nuw i8, ptr %1, i64 40
  %10 = load i32, ptr %9, align 8, !tbaa !14
  tail call void (ptr, ptr, ...) @strbuf_addf(ptr noundef %0, ptr noundef nonnull @.str.22, i32 noundef 0, i32 noundef %8, i32 noundef %10) #18
  %11 = load i32, ptr %1, align 8, !tbaa !4
  %12 = icmp sgt i32 %11, -1
  br i1 %12, label %13, label %20

13:                                               ; preds = %4
  %14 = getelementptr inbounds nuw i8, ptr %1, i64 4
  %15 = load ptr, ptr @the_repository, align 8, !tbaa !40
  %16 = getelementptr inbounds nuw i8, ptr %15, i64 400
  %17 = load ptr, ptr %16, align 8, !tbaa !57
  %18 = getelementptr inbounds nuw i8, ptr %17, i64 16
  %19 = load i64, ptr %18, align 8, !tbaa !76
  tail call void @strbuf_add(ptr noundef %0, ptr noundef nonnull %14, i64 noundef %19) #18
  br label %20

20:                                               ; preds = %13, %4
  %21 = load i32, ptr %9, align 8, !tbaa !14
  %22 = icmp sgt i32 %21, 0
  br i1 %22, label %.lr.ph, label %._crit_edge

.lr.ph:                                           ; preds = %20
  %23 = getelementptr inbounds nuw i8, ptr %1, i64 48
  br label %24

24:                                               ; preds = %.lr.ph, %subtree_name_cmp.exit.thread27
  %indvars.iv = phi i64 [ 0, %.lr.ph ], [ %indvars.iv.next, %subtree_name_cmp.exit.thread27 ]
  %25 = load ptr, ptr %23, align 8, !tbaa !15
  %26 = getelementptr inbounds nuw ptr, ptr %25, i64 %indvars.iv
  %27 = load ptr, ptr %26, align 8, !tbaa !16
  %.not = icmp eq i64 %indvars.iv, 0
  br i1 %.not, label %.subtree_name_cmp.exit.thread27_crit_edge, label %28

.subtree_name_cmp.exit.thread27_crit_edge:        ; preds = %24
  %.phi.trans.insert = getelementptr inbounds nuw i8, ptr %27, i64 12
  %.pre = load i32, ptr %.phi.trans.insert, align 4, !tbaa !20
  br label %subtree_name_cmp.exit.thread27

28:                                               ; preds = %24
  %29 = getelementptr i8, ptr %26, i64 -8
  %30 = load ptr, ptr %29, align 8, !tbaa !16
  %31 = getelementptr inbounds nuw i8, ptr %27, i64 20
  %32 = getelementptr inbounds nuw i8, ptr %27, i64 12
  %33 = load i32, ptr %32, align 4, !tbaa !20
  %34 = getelementptr inbounds nuw i8, ptr %30, i64 20
  %35 = getelementptr inbounds nuw i8, ptr %30, i64 12
  %36 = load i32, ptr %35, align 4, !tbaa !20
  %37 = icmp slt i32 %33, %36
  br i1 %37, label %subtree_name_cmp.exit.thread, label %38

38:                                               ; preds = %28
  %39 = icmp slt i32 %36, %33
  br i1 %39, label %subtree_name_cmp.exit.thread27, label %subtree_name_cmp.exit

subtree_name_cmp.exit:                            ; preds = %38
  %40 = sext i32 %33 to i64
  %41 = tail call i32 @memcmp(ptr noundef nonnull readonly %31, ptr noundef nonnull readonly %34, i64 noundef %40) #19
  %42 = icmp slt i32 %41, 1
  br i1 %42, label %subtree_name_cmp.exit.thread, label %subtree_name_cmp.exit.thread27

subtree_name_cmp.exit.thread:                     ; preds = %28, %subtree_name_cmp.exit
  tail call void (ptr, ...) @die(ptr noundef nonnull @.str.23) #20
  unreachable

subtree_name_cmp.exit.thread27:                   ; preds = %.subtree_name_cmp.exit.thread27_crit_edge, %38, %subtree_name_cmp.exit
  %43 = phi i32 [ %.pre, %.subtree_name_cmp.exit.thread27_crit_edge ], [ %33, %38 ], [ %33, %subtree_name_cmp.exit ]
  %44 = load ptr, ptr %27, align 8, !tbaa !12
  %45 = getelementptr inbounds nuw i8, ptr %27, i64 20
  tail call fastcc void @write_one(ptr noundef %0, ptr noundef %44, ptr noundef nonnull %45, i32 noundef %43)
  %indvars.iv.next = add nuw nsw i64 %indvars.iv, 1
  %46 = load i32, ptr %9, align 8, !tbaa !14
  %47 = sext i32 %46 to i64
  %48 = icmp slt i64 %indvars.iv.next, %47
  br i1 %48, label %24, label %._crit_edge, !llvm.loop !80

._crit_edge:                                      ; preds = %subtree_name_cmp.exit.thread27, %20
  ret void
}